; Function Attrs: mustprogress uwtable
define noundef zeroext i1 @_ZNK32pxrInternal_v0_24__pxrReserved__9UsdObject11SetMetadataERKNS_7TfTokenERKNS_7VtValueE(ptr noundef nonnull align 8 dereferenceable(32) %0, ptr noundef nonnull align 8 dereferenceable(8) %1, ptr noundef nonnull align 8 dereferenceable(16) %2) local_unnamed_addr #0 align 2 personality ptr @__gxx_personality_v0 {
  %4 = alloca %"class.pxrInternal_v0_24__pxrReserved__::TfToken", align 8
  store ptr null, ptr %4, align 8
  %5 = getelementptr inbounds nuw i8, ptr %0, i64 8
  %6 = load ptr, ptr %5, align 8
  %.not.i.i.i = icmp eq ptr %6, null
  br i1 %.not.i.i.i, label %11, label %7

7:                                                ; preds = %3
  %8 = getelementptr inbounds nuw i8, ptr %6, i64 56
  %9 = load i64, ptr %8, align 8
  %10 = and i64 %9, 2048
  %.not5.i.i.i = icmp eq i64 %10, 0
  br i1 %.not5.i.i.i, label %_ZNK32pxrInternal_v0_24__pxrReserved__9UsdObject9_GetStageEv.exit.i, label %11

11:                                               ; preds = %7, %3
  invoke void @_ZN32pxrInternal_v0_24__pxrReserved__31Usd_ThrowExpiredPrimAccessErrorEPKNS_12Usd_PrimDataE(ptr noundef %6)
          to label %_ZNK32pxrInternal_v0_24__pxrReserved__9UsdObject9_GetStageEv.exit.i unwind label %21

_ZNK32pxrInternal_v0_24__pxrReserved__9UsdObject9_GetStageEv.exit.i: ; preds = %11, %7
  %12 = load ptr, ptr %6, align 8
  %13 = invoke noundef zeroext i1 @_ZN32pxrInternal_v0_24__pxrReserved__8UsdStage12_SetMetadataERKNS_9UsdObjectERKNS_7TfTokenES6_RKNS_7VtValueE(ptr noundef nonnull align 8 dereferenceable(1282) %12, ptr noundef nonnull align 8 dereferenceable(32) %0, ptr noundef nonnull align 8 dereferenceable(8) %1, ptr noundef nonnull align 8 dereferenceable(8) %4, ptr noundef nonnull align 8 dereferenceable(16) %2)
          to label %_ZNK32pxrInternal_v0_24__pxrReserved__9UsdObject16_SetMetadataImplERKNS_7TfTokenERKNS_7VtValueES3_.exit unwind label %21

_ZNK32pxrInternal_v0_24__pxrReserved__9UsdObject16_SetMetadataImplERKNS_7TfTokenERKNS_7VtValueES3_.exit: ; preds = %_ZNK32pxrInternal_v0_24__pxrReserved__9UsdObject9_GetStageEv.exit.i
  %14 = load ptr, ptr %4, align 8
  %15 = ptrtoint ptr %14 to i64
  %16 = and i64 %15, 7
  %.not.i.i = icmp eq i64 %16, 0
  br i1 %.not.i.i, label %_ZN32pxrInternal_v0_24__pxrReserved__7TfTokenD2Ev.exit, label %17

17:                                               ; preds = %_ZNK32pxrInternal_v0_24__pxrReserved__9UsdObject16_SetMetadataImplERKNS_7TfTokenERKNS_7VtValueES3_.exit
  %18 = and i64 %15, -8
  %19 = inttoptr i64 %18 to ptr
  %20 = atomicrmw sub ptr %19, i32 2 release, align 4
  br label %_ZN32pxrInternal_v0_24__pxrReserved__7TfTokenD2Ev.exit

_ZN32pxrInternal_v0_24__pxrReserved__7TfTokenD2Ev.exit: ; preds = %_ZNK32pxrInternal_v0_24__pxrReserved__9UsdObject16_SetMetadataImplERKNS_7TfTokenERKNS_7VtValueES3_.exit, %17
  ret i1 %13

21:                                               ; preds = %_ZNK32pxrInternal_v0_24__pxrReserved__9UsdObject9_GetStageEv.exit.i, %11
  %22 = landingpad { ptr, i32 }
          cleanup
  %23 = load ptr, ptr %4, align 8
  %24 = ptrtoint ptr %23 to i64
  %25 = and i64 %24, 7
  %.not.i.i5 = icmp eq i64 %25, 0
  br i1 %.not.i.i5, label %_ZN32pxrInternal_v0_24__pxrReserved__7TfTokenD2Ev.exit6, label %26

26:                                               ; preds = %21
  %27 = and i64 %24, -8
  %28 = inttoptr i64 %27 to ptr
  %29 = atomicrmw sub ptr %28, i32 2 release, align 4
  br label %_ZN32pxrInternal_v0_24__pxrReserved__7TfTokenD2Ev.exit6

_ZN32pxrInternal_v0_24__pxrReserved__7TfTokenD2Ev.exit6: ; preds = %21, %26
  resume { ptr, i32 } %22
}